; Function Attrs: nounwind uwtable
define dso_local void @ustr_initChars(ptr noundef captures(none) %0, ptr noundef %1, i32 noundef %2, ptr noundef captures(none) %3) local_unnamed_addr #1 {
  %5 = alloca i16, align 2
  %6 = load i32, ptr %3, align 4, !tbaa !4
  %7 = icmp sgt i32 %6, 0
  br i1 %7, label %ustr_resize.exit.thread, label %8

8:                                                ; preds = %4
  %9 = getelementptr inbounds nuw i8, ptr %0, i64 12
  %10 = getelementptr inbounds nuw i8, ptr %0, i64 8
  %11 = icmp eq i32 %2, -1
  tail call void @llvm.memset.p0.i64(ptr noundef nonnull align 8 dereferenceable(16) %0, i8 0, i64 16, i1 false)
  br i1 %11, label %12, label %15

12:                                               ; preds = %8
  %13 = tail call i64 @strlen(ptr noundef nonnull dereferenceable(1) %1) #8
  %14 = trunc i64 %13 to i32
  br label %15

15:                                               ; preds = %12, %8
  %.019 = phi i32 [ %14, %12 ], [ %2, %8 ]
  %16 = icmp sgt i32 %.019, 0
  br i1 %16, label %17, label %ustr_resize.exit.thread

17:                                               ; preds = %15
  %18 = load i32, ptr %3, align 4, !tbaa !4
  %19 = icmp sgt i32 %18, 0
  br i1 %19, label %ustr_resize.exit.thread, label %20

20:                                               ; preds = %17
  %21 = icmp samesign ult i32 %.019, 128
  %22 = shl nuw nsw i32 %.019, 1
  %23 = and i32 %22, 2147483520
  %24 = add nuw nsw i32 %23, 128
  %25 = select i1 %21, i32 128, i32 %24
  %26 = shl nuw i32 %25, 1
  %27 = or disjoint i32 %26, 2
  %28 = zext i32 %27 to i64
  %29 = tail call ptr @uprv_realloc_77(ptr noundef null, i64 noundef %28) #9
  store ptr %29, ptr %0, align 8, !tbaa !8
  %30 = icmp eq ptr %29, null
  br i1 %30, label %31, label %ustr_resize.exit

31:                                               ; preds = %20
  store i32 7, ptr %3, align 4, !tbaa !4
  store i32 0, ptr %10, align 8, !tbaa !12
  br label %ustr_resize.exit

ustr_resize.exit:                                 ; preds = %20, %31
  %.sink = phi i32 [ 0, %31 ], [ %25, %20 ]
  store i32 %.sink, ptr %9, align 4, !tbaa !13
  %.pr = load i32, ptr %3, align 4, !tbaa !4
  %32 = icmp slt i32 %.pr, 1
  br i1 %32, label %.lr.ph.preheader, label %ustr_resize.exit.thread

.lr.ph.preheader:                                 ; preds = %ustr_resize.exit
  %wide.trip.count = zext nneg i32 %.019 to i64
  br label %.lr.ph

.lr.ph:                                           ; preds = %.lr.ph.preheader, %ustr_ucat.exit
  %indvars.iv = phi i64 [ 0, %.lr.ph.preheader ], [ %indvars.iv.next, %ustr_ucat.exit ]
  call void @llvm.lifetime.start.p0(i64 2, ptr nonnull %5) #10
  %33 = getelementptr inbounds nuw i8, ptr %1, i64 %indvars.iv
  call void @u_charsToUChars_77(ptr noundef %33, ptr noundef nonnull %5, i32 noundef 1) #10
  %34 = load i16, ptr %5, align 2, !tbaa !14
  %35 = load i32, ptr %3, align 4, !tbaa !4
  %36 = icmp sgt i32 %35, 0
  br i1 %36, label %ustr_ucat.exit, label %37

37:                                               ; preds = %.lr.ph
  %38 = load i32, ptr %9, align 4, !tbaa !13
  %39 = load i32, ptr %10, align 8, !tbaa !12
  %.not.i = icmp sgt i32 %38, %39
  %.pre.i = load ptr, ptr %0, align 8, !tbaa !8
  br i1 %.not.i, label %54, label %40

40:                                               ; preds = %37
  %41 = icmp slt i32 %39, 127
  %42 = shl nuw nsw i32 %39, 1
  %43 = add nuw nsw i32 %42, 129
  %44 = and i32 %43, 2147483520
  %45 = select i1 %41, i32 128, i32 %44
  %46 = shl nuw i32 %45, 1
  %47 = or disjoint i32 %46, 2
  %48 = zext i32 %47 to i64
  %49 = call ptr @uprv_realloc_77(ptr noundef %.pre.i, i64 noundef %48) #9
  store ptr %49, ptr %0, align 8, !tbaa !8
  %50 = icmp eq ptr %49, null
  br i1 %50, label %51, label %ustr_resize.exit.i

51:                                               ; preds = %40
  store i32 7, ptr %3, align 4, !tbaa !4
  store i32 0, ptr %10, align 8, !tbaa !12
  br label %ustr_resize.exit.i

ustr_resize.exit.i:                               ; preds = %51, %40
  %.sink.i = phi i32 [ 0, %51 ], [ %45, %40 ]
  store i32 %.sink.i, ptr %9, align 4, !tbaa !13
  %52 = load i32, ptr %3, align 4, !tbaa !4
  %53 = icmp sgt i32 %52, 0
  br i1 %53, label %ustr_ucat.exit, label %ustr_resize.exit._crit_edge.i

ustr_resize.exit._crit_edge.i:                    ; preds = %ustr_resize.exit.i
  %.pre13.i = load i32, ptr %10, align 8, !tbaa !12
  br label %54

54:                                               ; preds = %ustr_resize.exit._crit_edge.i, %37
  %55 = phi i32 [ %39, %37 ], [ %.pre13.i, %ustr_resize.exit._crit_edge.i ]
  %56 = phi ptr [ %.pre.i, %37 ], [ %49, %ustr_resize.exit._crit_edge.i ]
  %57 = sext i32 %55 to i64
  %58 = getelementptr inbounds i16, ptr %56, i64 %57
  store i16 %34, ptr %58, align 2
  %59 = load i32, ptr %10, align 8, !tbaa !12
  %60 = add nsw i32 %59, 1
  store i32 %60, ptr %10, align 8, !tbaa !12
  %61 = load ptr, ptr %0, align 8, !tbaa !8
  %62 = sext i32 %60 to i64
  %63 = getelementptr inbounds i16, ptr %61, i64 %62
  store i16 0, ptr %63, align 2, !tbaa !14
  br label %ustr_ucat.exit

ustr_ucat.exit:                                   ; preds = %.lr.ph, %ustr_resize.exit.i, %54
  call void @llvm.lifetime.end.p0(i64 2, ptr nonnull %5) #10
  %indvars.iv.next = add nuw nsw i64 %indvars.iv, 1
  %exitcond.not = icmp eq i64 %indvars.iv.next, %wide.trip.count
  br i1 %exitcond.not, label %ustr_resize.exit.thread, label %.lr.ph, !llvm.loop !16

ustr_resize.exit.thread:                          ; preds = %ustr_ucat.exit, %15, %17, %ustr_resize.exit, %4
  ret void
}